(lp0
(lp1
I4
aI5
aS'*'
p2
aI23
aI10
aS'-'
p3
ag3
aa(lp4
I4
aI5
ag2
aI23
ag3
aI10
aS'+'
p5
aa(lp6
I4
aI5
ag2
aI10
aI23
ag3
ag5
aa(lp7
I4
aI5
ag2
aI10
ag5
aI23
ag3
aa(lp8
I5
aI4
ag2
aI23
aI10
ag3
ag3
aa(lp9
I5
aI4
ag2
aI23
ag3
aI10
ag5
aa(lp10
I5
aI4
ag2
aI10
aI23
ag3
ag5
aa(lp11
I5
aI4
ag2
aI10
ag5
aI23
ag3
aa(lp12
I5
aI10
aI4
ag3
ag2
aI23
ag3
aa(lp13
I23
aI5
aI10
ag3
ag3
aI4
aS'/'
p14
aa(lp15
I23
aI5
ag3
aI10
ag5
aI4
ag14
aa(lp16
I23
aI10
aI5
ag3
ag5
aI4
ag14
aa(lp17
I23
aI10
ag5
aI5
ag3
aI4
ag14
aa(lp18
I10
aI4
aI5
ag2
aI23
ag3
ag5
aa(lp19
I10
aI4
aI5
ag2
ag5
aI23
ag3
aa(lp20
I10
aI4
ag3
aI5
ag2
aI23
ag3
aa(lp21
I10
aI5
aI4
ag2
aI23
ag3
ag5
aa(lp22
I10
aI5
aI4
ag2
ag5
aI23
ag3
aa(lp23
I10
aI5
aI23
ag3
ag3
aI4
ag14
aa(lp24
I10
aI5
ag3
aI23
ag5
aI4
ag14
aa(lp25
I10
aI23
aI4
aI5
ag2
ag3
ag3
aa(lp26
I10
aI23
aI5
aI4
ag2
ag3
ag3
aa(lp27
I10
aI23
aI5
ag3
ag5
aI4
ag14
aa(lp28
I10
aI23
ag5
aI5
ag3
aI4
ag14
aa(lp29
I10
aI23
ag3
aI4
aI5
ag2
ag5
aa(lp30
I10
aI23
ag3
aI5
aI4
ag2
ag5
aa.